#include <math.h>
#include <stdio.h>
#include <stdlib.h>
#include <string.h>
#include <iostream>
using namespace std;

/**
  *file  ????
  *author ???
  *date   12.1
  *function		???????????????????????????3?1??????????2??????
				???????????????????1??????????5????????16?8?4?2?1? 
				??????????????????1???????? 
*/
int main()
{
	int n;
	cin >> n;
	while(n != 1)
	{
		if(n % 2 == 1)
		{
			cout << n << "*3+1=" << (n*3+1) << endl;
			n = n * 3 + 1;
		}
		else
		{
			cout << n << "/2=" << (n/2) << endl;
			n = n / 2;
		}
	}
	cout << "End" << endl;
	return 0;
}
